; ModuleID = '20/1094.c'
source_filename = "20/1094.c"
target datalayout = "e-m:e-p270:32:32-p271:32:32-p272:64:64-i64:64-f80:128-n8:16:32:64-S128"
target triple = "x86_64-pc-linux-gnu"

@.str = private unnamed_addr constant [6 x i8] c"%s %s\00", align 1
@.str.1 = private unnamed_addr constant [4 x i8] c"%s\0A\00", align 1

; Function Attrs: noinline nounwind uwtable
define dso_local void @main() #0 {
  %1 = alloca [1000 x [10 x i8]], align 16
  %2 = alloca [1000 x [3 x i8]], align 16
  %3 = alloca i8, align 1
  %4 = alloca [1000 x [100 x i8]], align 16
  %5 = alloca i32, align 4
  %6 = alloca i32, align 4
  %7 = alloca i32, align 4
  %8 = alloca i32, align 4
  %9 = alloca i32, align 4
  %10 = alloca i32, align 4
  %11 = alloca i32, align 4
  store i32 0, i32* %5, align 4
  br label %12

12:                                               ; preds = %173, %0
  %13 = load i32, i32* %5, align 4
  %14 = sext i32 %13 to i64
  %15 = getelementptr inbounds [1000 x [10 x i8]], [1000 x [10 x i8]]* %1, i64 0, i64 %14
  %16 = getelementptr inbounds [10 x i8], [10 x i8]* %15, i64 0, i64 0
  %17 = load i32, i32* %5, align 4
  %18 = sext i32 %17 to i64
  %19 = getelementptr inbounds [1000 x [3 x i8]], [1000 x [3 x i8]]* %2, i64 0, i64 %18
  %20 = getelementptr inbounds [3 x i8], [3 x i8]* %19, i64 0, i64 0
  %21 = call i32 (i8*, ...) @__isoc99_scanf(i8* getelementptr inbounds ([6 x i8], [6 x i8]* @.str, i64 0, i64 0), i8* %16, i8* %20)
  %22 = icmp ne i32 %21, -1
  br i1 %22, label %23, label %176

23:                                               ; preds = %12
  %24 = load i32, i32* %5, align 4
  %25 = sext i32 %24 to i64
  %26 = getelementptr inbounds [1000 x [10 x i8]], [1000 x [10 x i8]]* %1, i64 0, i64 %25
  %27 = getelementptr inbounds [10 x i8], [10 x i8]* %26, i64 0, i64 0
  %28 = load i8, i8* %27, align 2
  store i8 %28, i8* %3, align 1
  store i32 1, i32* %6, align 4
  br label %29

29:                                               ; preds = %53, %23
  %30 = load i32, i32* %6, align 4
  %31 = icmp sle i32 %30, 10
  br i1 %31, label %32, label %56

32:                                               ; preds = %29
  %33 = load i8, i8* %3, align 1
  %34 = sext i8 %33 to i32
  %35 = load i32, i32* %5, align 4
  %36 = sext i32 %35 to i64
  %37 = getelementptr inbounds [1000 x [10 x i8]], [1000 x [10 x i8]]* %1, i64 0, i64 %36
  %38 = load i32, i32* %6, align 4
  %39 = sext i32 %38 to i64
  %40 = getelementptr inbounds [10 x i8], [10 x i8]* %37, i64 0, i64 %39
  %41 = load i8, i8* %40, align 1
  %42 = sext i8 %41 to i32
  %43 = icmp slt i32 %34, %42
  br i1 %43, label %44, label %52

44:                                               ; preds = %32
  %45 = load i32, i32* %5, align 4
  %46 = sext i32 %45 to i64
  %47 = getelementptr inbounds [1000 x [10 x i8]], [1000 x [10 x i8]]* %1, i64 0, i64 %46
  %48 = load i32, i32* %6, align 4
  %49 = sext i32 %48 to i64
  %50 = getelementptr inbounds [10 x i8], [10 x i8]* %47, i64 0, i64 %49
  %51 = load i8, i8* %50, align 1
  store i8 %51, i8* %3, align 1
  br label %52

52:                                               ; preds = %44, %32
  br label %53

53:                                               ; preds = %52
  %54 = load i32, i32* %6, align 4
  %55 = add nsw i32 %54, 1
  store i32 %55, i32* %6, align 4
  br label %29

56:                                               ; preds = %29
  store i32 0, i32* %7, align 4
  br label %57

57:                                               ; preds = %170, %56
  %58 = load i32, i32* %7, align 4
  %59 = icmp sle i32 %58, 10
  br i1 %59, label %60, label %173

60:                                               ; preds = %57
  %61 = load i32, i32* %5, align 4
  %62 = sext i32 %61 to i64
  %63 = getelementptr inbounds [1000 x [10 x i8]], [1000 x [10 x i8]]* %1, i64 0, i64 %62
  %64 = load i32, i32* %7, align 4
  %65 = sext i32 %64 to i64
  %66 = getelementptr inbounds [10 x i8], [10 x i8]* %63, i64 0, i64 %65
  %67 = load i8, i8* %66, align 1
  %68 = sext i8 %67 to i32
  %69 = load i8, i8* %3, align 1
  %70 = sext i8 %69 to i32
  %71 = icmp eq i32 %68, %70
  br i1 %71, label %72, label %169

72:                                               ; preds = %60
  store i32 0, i32* %8, align 4
  br label %73

73:                                               ; preds = %91, %72
  %74 = load i32, i32* %8, align 4
  %75 = load i32, i32* %7, align 4
  %76 = icmp sle i32 %74, %75
  br i1 %76, label %77, label %94

77:                                               ; preds = %73
  %78 = load i32, i32* %5, align 4
  %79 = sext i32 %78 to i64
  %80 = getelementptr inbounds [1000 x [10 x i8]], [1000 x [10 x i8]]* %1, i64 0, i64 %79
  %81 = load i32, i32* %8, align 4
  %82 = sext i32 %81 to i64
  %83 = getelementptr inbounds [10 x i8], [10 x i8]* %80, i64 0, i64 %82
  %84 = load i8, i8* %83, align 1
  %85 = load i32, i32* %5, align 4
  %86 = sext i32 %85 to i64
  %87 = getelementptr inbounds [1000 x [100 x i8]], [1000 x [100 x i8]]* %4, i64 0, i64 %86
  %88 = load i32, i32* %8, align 4
  %89 = sext i32 %88 to i64
  %90 = getelementptr inbounds [100 x i8], [100 x i8]* %87, i64 0, i64 %89
  store i8 %84, i8* %90, align 1
  br label %91

91:                                               ; preds = %77
  %92 = load i32, i32* %8, align 4
  %93 = add nsw i32 %92, 1
  store i32 %93, i32* %8, align 4
  br label %73

94:                                               ; preds = %73
  store i32 0, i32* %9, align 4
  br label %95

95:                                               ; preds = %121, %94
  %96 = load i32, i32* %8, align 4
  %97 = sext i32 %96 to i64
  %98 = load i32, i32* %7, align 4
  %99 = sext i32 %98 to i64
  %100 = load i32, i32* %5, align 4
  %101 = sext i32 %100 to i64
  %102 = getelementptr inbounds [1000 x [3 x i8]], [1000 x [3 x i8]]* %2, i64 0, i64 %101
  %103 = getelementptr inbounds [3 x i8], [3 x i8]* %102, i64 0, i64 0
  %104 = call i64 @strlen(i8* %103) #3
  %105 = add i64 %99, %104
  %106 = icmp ule i64 %97, %105
  br i1 %106, label %107, label %126

107:                                              ; preds = %95
  %108 = load i32, i32* %5, align 4
  %109 = sext i32 %108 to i64
  %110 = getelementptr inbounds [1000 x [3 x i8]], [1000 x [3 x i8]]* %2, i64 0, i64 %109
  %111 = load i32, i32* %9, align 4
  %112 = sext i32 %111 to i64
  %113 = getelementptr inbounds [3 x i8], [3 x i8]* %110, i64 0, i64 %112
  %114 = load i8, i8* %113, align 1
  %115 = load i32, i32* %5, align 4
  %116 = sext i32 %115 to i64
  %117 = getelementptr inbounds [1000 x [100 x i8]], [1000 x [100 x i8]]* %4, i64 0, i64 %116
  %118 = load i32, i32* %8, align 4
  %119 = sext i32 %118 to i64
  %120 = getelementptr inbounds [100 x i8], [100 x i8]* %117, i64 0, i64 %119
  store i8 %114, i8* %120, align 1
  br label %121

121:                                              ; preds = %107
  %122 = load i32, i32* %8, align 4
  %123 = add nsw i32 %122, 1
  store i32 %123, i32* %8, align 4
  %124 = load i32, i32* %9, align 4
  %125 = add nsw i32 %124, 1
  store i32 %125, i32* %9, align 4
  br label %95

126:                                              ; preds = %95
  %127 = load i32, i32* %7, align 4
  %128 = add nsw i32 %127, 1
  store i32 %128, i32* %10, align 4
  br label %129

129:                                              ; preds = %158, %126
  %130 = load i32, i32* %8, align 4
  %131 = sext i32 %130 to i64
  %132 = load i32, i32* %5, align 4
  %133 = sext i32 %132 to i64
  %134 = getelementptr inbounds [1000 x [3 x i8]], [1000 x [3 x i8]]* %2, i64 0, i64 %133
  %135 = getelementptr inbounds [3 x i8], [3 x i8]* %134, i64 0, i64 0
  %136 = call i64 @strlen(i8* %135) #3
  %137 = load i32, i32* %5, align 4
  %138 = sext i32 %137 to i64
  %139 = getelementptr inbounds [1000 x [10 x i8]], [1000 x [10 x i8]]* %1, i64 0, i64 %138
  %140 = getelementptr inbounds [10 x i8], [10 x i8]* %139, i64 0, i64 0
  %141 = call i64 @strlen(i8* %140) #3
  %142 = add i64 %136, %141
  %143 = icmp ule i64 %131, %142
  br i1 %143, label %144, label %163

144:                                              ; preds = %129
  %145 = load i32, i32* %5, align 4
  %146 = sext i32 %145 to i64
  %147 = getelementptr inbounds [1000 x [10 x i8]], [1000 x [10 x i8]]* %1, i64 0, i64 %146
  %148 = load i32, i32* %10, align 4
  %149 = sext i32 %148 to i64
  %150 = getelementptr inbounds [10 x i8], [10 x i8]* %147, i64 0, i64 %149
  %151 = load i8, i8* %150, align 1
  %152 = load i32, i32* %5, align 4
  %153 = sext i32 %152 to i64
  %154 = getelementptr inbounds [1000 x [100 x i8]], [1000 x [100 x i8]]* %4, i64 0, i64 %153
  %155 = load i32, i32* %8, align 4
  %156 = sext i32 %155 to i64
  %157 = getelementptr inbounds [100 x i8], [100 x i8]* %154, i64 0, i64 %156
  store i8 %151, i8* %157, align 1
  br label %158

158:                                              ; preds = %144
  %159 = load i32, i32* %8, align 4
  %160 = add nsw i32 %159, 1
  store i32 %160, i32* %8, align 4
  %161 = load i32, i32* %10, align 4
  %162 = add nsw i32 %161, 1
  store i32 %162, i32* %10, align 4
  br label %129

163:                                              ; preds = %129
  %164 = load i32, i32* %5, align 4
  %165 = sext i32 %164 to i64
  %166 = getelementptr inbounds [1000 x [100 x i8]], [1000 x [100 x i8]]* %4, i64 0, i64 %165
  %167 = getelementptr inbounds [100 x i8], [100 x i8]* %166, i64 0, i64 0
  %168 = call i32 (i8*, ...) @printf(i8* getelementptr inbounds ([4 x i8], [4 x i8]* @.str.1, i64 0, i64 0), i8* %167)
  br label %173

169:                                              ; preds = %60
  br label %170

170:                                              ; preds = %169
  %171 = load i32, i32* %7, align 4
  %172 = add nsw i32 %171, 1
  store i32 %172, i32* %7, align 4
  br label %57

173:                                              ; preds = %163, %57
  %174 = load i32, i32* %5, align 4
  %175 = add nsw i32 %174, 1
  store i32 %175, i32* %5, align 4
  br label %12

176:                                              ; preds = %12
  ret void
}

declare dso_local i32 @__isoc99_scanf(i8*, ...) #1

; Function Attrs: nounwind readonly
declare dso_local i64 @strlen(i8*) #2

declare dso_local i32 @printf(i8*, ...) #1


!llvm.module.flags = !{!0}
!llvm.ident = !{!1}

!0 = !{i32 1, !"wchar_size", i32 4}
!1 = !{!"clang version 10.0.0-4ubuntu1 "}
